target datalayout = "e-m:e-p270:32:32-p271:32:32-p272:64:64-i64:64-i128:128-f80:128-n8:16:32:64-S128"
target triple = "x86_64-pc-linux-gnu"

@.str = private unnamed_addr constant [33 x i8] c"../openssl/crypto/pem/pem_info.c\00", align 1
@__func__.PEM_X509_INFO_read_ex = private unnamed_addr constant [22 x i8] c"PEM_X509_INFO_read_ex\00", align 1

; Function Attrs: nounwind uwtable
define ptr @PEM_X509_INFO_read_ex(ptr noundef %0, ptr noundef %1, ptr noundef %2, ptr noundef %3, ptr noundef %4, ptr noundef %5) #0 {
  %7 = alloca ptr, align 8
  %8 = alloca ptr, align 8
  %9 = alloca ptr, align 8
  %10 = alloca ptr, align 8
  %11 = alloca ptr, align 8
  %12 = alloca ptr, align 8
  %13 = alloca ptr, align 8
  %14 = alloca ptr, align 8
  %15 = alloca ptr, align 8
  %16 = alloca i32, align 4
  store ptr %0, ptr %8, align 8, !tbaa !3
  store ptr %1, ptr %9, align 8, !tbaa !8
  store ptr %2, ptr %10, align 8, !tbaa !10
  store ptr %3, ptr %11, align 8, !tbaa !10
  store ptr %4, ptr %12, align 8, !tbaa !11
  store ptr %5, ptr %13, align 8, !tbaa !13
  call void @llvm.lifetime.start.p0(i64 8, ptr %14) #5
  call void @llvm.lifetime.start.p0(i64 8, ptr %15) #5
  %17 = call ptr @BIO_s_file()
  %18 = call ptr @BIO_new(ptr noundef %17)
  store ptr %18, ptr %14, align 8, !tbaa !15
  %19 = icmp eq ptr %18, null
  br i1 %19, label %20, label %21

20:                                               ; preds = %6
  call void @ERR_new()
  call void @ERR_set_debug(ptr noundef @.str, i32 noundef 36, ptr noundef @__func__.PEM_X509_INFO_read_ex)
  call void (i32, i32, ptr, ...) @ERR_set_error(i32 noundef 9, i32 noundef 524295, ptr noundef null)
  store ptr null, ptr %7, align 8
  store i32 1, ptr %16, align 4
  br label %35

21:                                               ; preds = %6
  %22 = load ptr, ptr %14, align 8, !tbaa !15
  %23 = load ptr, ptr %8, align 8, !tbaa !3
  %24 = call i64 @BIO_ctrl(ptr noundef %22, i32 noundef 106, i64 noundef 0, ptr noundef %23)
  %25 = load ptr, ptr %14, align 8, !tbaa !15
  %26 = load ptr, ptr %9, align 8, !tbaa !8
  %27 = load ptr, ptr %10, align 8, !tbaa !10
  %28 = load ptr, ptr %11, align 8, !tbaa !10
  %29 = load ptr, ptr %12, align 8, !tbaa !11
  %30 = load ptr, ptr %13, align 8, !tbaa !13
  %31 = call ptr @PEM_X509_INFO_read_bio_ex(ptr noundef %25, ptr noundef %26, ptr noundef %27, ptr noundef %28, ptr noundef %29, ptr noundef %30)
  store ptr %31, ptr %15, align 8, !tbaa !8
  %32 = load ptr, ptr %14, align 8, !tbaa !15
  %33 = call i32 @BIO_free(ptr noundef %32)
  %34 = load ptr, ptr %15, align 8, !tbaa !8
  store ptr %34, ptr %7, align 8
  store i32 1, ptr %16, align 4
  br label %35

35:                                               ; preds = %21, %20
  call void @llvm.lifetime.end.p0(i64 8, ptr %15) #5
  call void @llvm.lifetime.end.p0(i64 8, ptr %14) #5
  %36 = load ptr, ptr %7, align 8
  ret ptr %36
}